ccopy_reg
_reconstructor
p0
(csrc.solver
Solver
p1
c__builtin__
object
p2
Ntp3
Rp4
(dp5
S'product_per_outbound_truck'
p6
I1
sS'tightness_factor'
p7
(lp8
F0.1
asS'data_name'
p9
S'unnamed'
p10
sS'changeover_time'
p11
F10.0
sS'inbound_mu'
p12
I2
sS'outbound_trucks'
p13
(dp14
S'outbound1'
p15
g0
(csrc.truck
OutboundTruck
p16
g2
Ntp17
Rp18
(dp19
S'shipping_door_name'
p20
NsS'state_list'
p21
(S'coming'
p22
S'waiting'
p23
S'start_loading'
p24
S'loading'
p25
S'going'
p26
tp27
sS'finish_time'
p28
I0
sS'current_state'
p29
I0
sS'truck_type'
p30
S'outbound'
p31
sS'state_change_times'
p32
(lp33
I5
aI10
aI30
asS'shipping_door'
p34
I0
sS'outbound_gdj'
p35
I0
sS'going_goods'
p36
(lp37
g0
(csrc.good
Good
p38
g2
Ntp39
Rp40
(dp41
S'amount'
p42
I1
sS'type'
p43
S'0'
p44
sbag0
(g38
g2
Ntp45
Rp46
(dp47
g42
I2
sg43
S'1'
p48
sbag0
(g38
g2
Ntp49
Rp50
(dp51
g42
I3
sg43
S'2'
p52
sbasS'truck_number'
p53
I0
sS'loading_time'
p54
I0
sS'truck_name'
p55
g15
sbsS'outbound0'
p56
g0
(g16
g2
Ntp57
Rp58
(dp59
S'A'
p60
F42.173896282963454
sg20
S'ship0'
p61
sg21
(S'coming'
p62
S'waiting'
p63
S'start_loading'
p64
S'loading'
p65
S'going'
p66
tp67
sg28
F20.173896282963454
sg29
I0
sS'bounds'
p68
(lp69
F8.434779256592691
aF12.652168884889038
asg30
S'outbound'
p70
sg32
(lp71
I5
aI10
aI30
asg34
g0
(csrc.shipping_doors
ShippingDoor
p72
g2
Ntp73
Rp74
(dp75
S'status'
p76
(lp77
S'empty'
p78
ag65
asS'door_name'
p79
g61
sS'sequence'
p80
(lp81
g58
ag0
(csrc.truck
CompoundTruck
p82
g2
Ntp83
Rp84
(dp85
g60
F42.08821904165867
sS'receiviving_door_name'
p86
Nsg21
(S'coming'
p87
S'waiting'
p88
S'start_deploy'
p89
S'deploying'
p90
S'transfering'
p91
S'waiting'
p92
S'start_loading'
p93
S'loading'
p94
S'going'
p95
tp96
sS'coming_goods'
p97
(lp98
g0
(g38
g2
Ntp99
Rp100
(dp101
S'coming_truck_name'
p102
S'compound0'
p103
sg42
I1
sg43
g44
sbag0
(g38
g2
Ntp104
Rp105
(dp106
g102
g103
sg42
I2
sg43
g48
sbag0
(g38
g2
Ntp107
Rp108
(dp109
g102
g103
sg42
I3
sg43
g52
sbasg68
(lp110
F8.417643808331734
aF12.626465712497602
asg28
I9
sS'receiving_door_name'
p111
S'recv0'
p112
sg29
I0
sg11
F10.0
sg30
S'compound'
p113
sg32
(lp114
I5
aI10
aI30
asg34
g74
sg20
g61
sg35
F20.088219041658668
sg36
(lp115
g0
(g38
g2
Ntp116
Rp117
(dp118
g42
I1
sg43
g44
sbag0
(g38
g2
Ntp119
Rp120
(dp121
g42
I2
sg43
g48
sbag0
(g38
g2
Ntp122
Rp123
(dp124
g42
I3
sg43
g52
sbasS'receiving_door'
p125
g0
(csrc.receiving_door
ReceivingDoor
p126
g2
Ntp127
Rp128
(dp129
g76
(lp130
g78
aS'deploying'
p131
asg79
g112
sS'deploying_truck'
p132
Nsg80
(lp133
g84
ag0
(csrc.truck
InboundTruck
p134
g2
Ntp135
Rp136
(dp137
S'current_time'
p138
I0
sg21
(S'coming'
p139
S'waiting'
p140
S'start_deploy'
p141
g131
S'done'
p142
tp143
sg97
(lp144
g0
(g38
g2
Ntp145
Rp146
(dp147
g102
S'inbound0'
p148
sg42
I10
sg43
g44
sbag0
(g38
g2
Ntp149
Rp150
(dp151
g102
g148
sg42
I10
sg43
g48
sbag0
(g38
g2
Ntp152
Rp153
(dp154
g102
g148
sg42
I10
sg43
g52
sbasg28
I9
sg111
g112
sg29
I0
sg30
S'inbound'
p155
sg32
(lp156
I5
aI10
aI30
asS'receive_door'
p157
I0
sS'door_number'
p158
I0
sS'receive_door_name'
p159
S''
p160
sg125
g128
sS'inbound_gdj'
p161
I9
sg53
I0
sg54
F2.0
sg55
S'inbound0'
p162
sbasS'truck_sequence'
p163
I0
sS'waiting_trucks'
p164
I0
sS'trpe'
p165
S'Receiving'
p166
sg158
I0
sS'truck'
p167
I0
sS'good_list'
p168
(lp169
sS'station'
p170
g0
(csrc.station
Station
p171
g2
Ntp172
Rp173
(dp174
S'shipping_doors'
p175
(dp176
S'ship2'
p177
g0
(g72
g2
Ntp178
Rp179
(dp180
g76
(lp181
S'empty'
p182
ag25
asg79
g177
sg80
(lp183
sg164
I0
sg165
S'Shipping'
p184
sS'loading_truck'
p185
Nsg170
g173
sg167
Nsg168
(lp186
sS'status_number'
p187
I0
sbsS'ship1'
p188
g0
(g72
g2
Ntp189
Rp190
(dp191
g76
(lp192
g182
ag25
asg79
g188
sg80
(lp193
sg164
I0
sg165
g184
sg185
Nsg170
g173
sg167
Nsg168
(lp194
sg187
I0
sbsg61
g74
ssS'station_goods'
p195
(dp196
sS'receiving_doors'
p197
(dp198
S'recv1'
p199
g0
(g126
g2
Ntp200
Rp201
(dp202
g76
(lp203
g182
aS'deploying'
p204
asg79
g199
sg132
Nsg80
(lp205
sg163
I0
sg164
I0
sg165
S'Receiving'
p206
sg158
I0
sg167
I0
sg168
(lp207
sg170
g173
sg187
I0
sbsg112
g128
sS'recv2'
p208
g0
(g126
g2
Ntp209
Rp210
(dp211
g76
(lp212
g182
ag204
asg79
g208
sg132
Nsg80
(lp213
sg163
I0
sg164
I0
sg165
g206
sg158
I0
sg167
I0
sg168
(lp214
sg170
g173
sg187
I0
sbssbsg187
I0
sbsg161
I9
sg53
I0
sg54
F2.0
sS'receiviving_door'
p215
I0
sg55
S'compound0'
p216
sbasg164
I0
sg165
S'Shipping'
p217
sg185
Nsg170
g173
sg167
Nsg168
(lp218
sg187
I0
sbsg35
F20.173896282963454
sg36
(lp219
g0
(g38
g2
Ntp220
Rp221
(dp222
g42
I1
sg43
g44
sbag0
(g38
g2
Ntp223
Rp224
(dp225
g42
I2
sg43
g48
sbag0
(g38
g2
Ntp226
Rp227
(dp228
g42
I3
sg43
g52
sbasg53
I0
sg54
F2.0
sg55
g56
sbsS'outbound2'
p229
g0
(g16
g2
Ntp230
Rp231
(dp232
g20
Nsg21
g27
sg28
I0
sg29
I0
sg30
g31
sg32
(lp233
I5
aI10
aI30
asg34
I0
sg35
I0
sg36
(lp234
g0
(g38
g2
Ntp235
Rp236
(dp237
g42
I1
sg43
g44
sbag0
(g38
g2
Ntp238
Rp239
(dp240
g42
I2
sg43
g48
sbag0
(g38
g2
Ntp241
Rp242
(dp243
g42
I3
sg43
g52
sbasg53
I0
sg54
I0
sg55
g229
sbssS'set_size'
p244
I1
sS'number_of_shipping_doors'
p245
I3
sS'time_step'
p246
I1
sg54
F2.0
sS'tavlama'
p247
g0
(csrc.tavlama
Tavlama
p248
g2
Ntp249
Rp250
(dp251
S'sorted_coming_trucks'
p252
(lp253
(g216
I9
tp254
a(g162
I9
tp255
asS'iteration_number'
p256
I100
sS'temperature'
p257
I100
sS'best_seqeunce'
p258
(dp259
g112
(lp260
g216
ag162
assS'going_trucks'
p261
(dp262
g216
F20.088219041658668
sg56
F20.173896282963454
ssS'coming_trucks'
p263
(dp264
g216
I9
sg162
I9
ssS'previous_sequence'
p265
g259
sS'current_sequence'
p266
g259
sS'model'
p267
g4
sS'sorted_going_trucks'
p268
(lp269
(g216
F20.088219041658668
tp270
a(g56
F20.173896282963454
tp271
asS'temperature_constant'
p272
F0.9
sbsg138
I0
sS'truck_dictionary'
p273
(dp274
g155
(dp275
S'inbound1'
p276
g0
(g134
g2
Ntp277
Rp278
(dp279
g138
I0
sg21
(S'coming'
p280
S'waiting'
p281
S'start_deploy'
p282
g204
S'done'
p283
tp284
sg97
(lp285
g0
(g38
g2
Ntp286
Rp287
(dp288
g102
S'inbound1'
p289
sg42
I1
sg43
g44
sbag0
(g38
g2
Ntp290
Rp291
(dp292
g102
g289
sg42
I2
sg43
g48
sbag0
(g38
g2
Ntp293
Rp294
(dp295
g102
g289
sg42
I3
sg43
g52
sbasg28
I0
sg29
I0
sg30
S'inbound'
p296
sg32
(lp297
I5
aI10
aI30
asg157
I0
sg158
I0
sg159
g160
sg161
I0
sg53
I0
sg54
I0
sg55
g276
sbsg162
g136
sS'inbound2'
p298
g0
(g134
g2
Ntp299
Rp300
(dp301
g138
I0
sg21
g284
sg97
(lp302
g0
(g38
g2
Ntp303
Rp304
(dp305
g102
S'inbound2'
p306
sg42
I1
sg43
g44
sbag0
(g38
g2
Ntp307
Rp308
(dp309
g102
g306
sg42
I2
sg43
g48
sbag0
(g38
g2
Ntp310
Rp311
(dp312
g102
g306
sg42
I3
sg43
g52
sbasg28
I0
sg29
I0
sg30
g296
sg32
(lp313
I5
aI10
aI30
asg157
I0
sg158
I0
sg159
g160
sg161
I0
sg53
I0
sg54
I0
sg55
g298
sbssg70
g14
sg113
(dp314
g216
g84
sS'compound1'
p315
g0
(g82
g2
Ntp316
Rp317
(dp318
g86
Nsg21
(S'coming'
p319
S'waiting'
p320
S'start_deploy'
p321
S'deploying'
p322
S'transfering'
p323
S'waiting'
p324
S'start_loading'
p325
S'loading'
p326
S'going'
p327
tp328
sg97
(lp329
g0
(g38
g2
Ntp330
Rp331
(dp332
g102
S'compound1'
p333
sg42
I1
sg43
g44
sbag0
(g38
g2
Ntp334
Rp335
(dp336
g102
g333
sg42
I2
sg43
g48
sbag0
(g38
g2
Ntp337
Rp338
(dp339
g102
g333
sg42
I2
sg43
g52
sbasg28
I0
sg29
I0
sg11
I0
sg30
S'compound'
p340
sg32
(lp341
I5
aI10
aI30
asg34
I0
sg20
Nsg35
I0
sg36
(lp342
g0
(g38
g2
Ntp343
Rp344
(dp345
g42
I2
sg43
g44
sbag0
(g38
g2
Ntp346
Rp347
(dp348
g42
I2
sg43
g48
sbag0
(g38
g2
Ntp349
Rp350
(dp351
g42
I2
sg43
g52
sbasg161
I0
sg53
I0
sg54
I0
sg215
I0
sg55
g315
sbsssS'number_of_goods'
p352
I3
sg170
g173
sS'inbound_trucks'
p353
g275
sS'makespan_factor'
p354
F0.2
sS'product_per_inbound_truck'
p355
I5
sS'compound_trucks'
p356
g314
sS'outbound_mu'
p357
I2
sS'arrival_time'
p358
(lp359
F10.0
aF20.0
asS'number_of_receiving_doors'
p360
I3
sS'alpha'
p361
(lp362
F0.2
asS'goods'
p363
(lp364
sS'number_of_trucks'
p365
I0
sS'data_set'
p366
(lp367
g0
(csrc.data_set
DataSet
p368
g2
Ntp369
Rp370
(dp371
S'tightnessFactor'
p372
F0.1
sS'inbound_twoGD'
p373
F1.0101010101010102
sg361
F0.2
sS'outbound_twoGD'
p374
F0.20202020202020204
sS'gamma'
p375
F0.1
sg354
F0.1
sbasS'end_time'
p376
I10
sS'current_set'
p377
I0
sg375
(lp378
F0.1
asb.