ccopy_reg
_reconstructor
p0
(csrc.data_store
DataStore
p1
c__builtin__
object
p2
Ntp3
Rp4
(dp5
S'number_of_alphas'
p6
I0
sS'sequence'
p7
(lp8
(lp9
a(lp10
asS'tightness_factor'
p11
F4.0
sS'changeover_time'
p12
F2.0
sS'good_transfer_time'
p13
F2.0
sS'alpha_values'
p14
(lp15
F2.0
aF2.0
aF2.0
aF3.0
aF3.0
asS'number_of_betas'
p16
I0
sS'outbound_arrival_time'
p17
F2.0
sS'alpha'
p18
F2.0
sS'number_of_shipping_doors'
p19
I1
sS'loading_time'
p20
F2.0
sS'inbound_goods'
p21
(lp22
(lp23
I12
aasS'data_set_number'
p24
I0
sS'gdj_values'
p25
(dp26
S'inbound'
p27
(lp28
sS'outbound'
p29
(lp30
sS'compound'
p31
(lp32
ssS'transfer_time'
p33
F2.0
sS'number_of_goods'
p34
I1
sS'inbound_twoGD'
p35
I0
sS'data_set_list'
p36
(lp37
(F2.0
F3.0
F4.0
tp38
a(F2.0
F3.0
F5.0
tp39
a(F2.0
F3.0
F6.0
tp40
a(F2.0
F3.0
F7.0
tp41
a(F2.0
F3.0
F8.0
tp42
a(F2.0
F3.0
F4.0
tp43
a(F2.0
F3.0
F5.0
tp44
a(F2.0
F3.0
F6.0
tp45
a(F2.0
F3.0
F7.0
tp46
a(F2.0
F3.0
F8.0
tp47
a(F2.0
F3.0
F4.0
tp48
a(F2.0
F3.0
F5.0
tp49
a(F2.0
F3.0
F6.0
tp50
a(F2.0
F3.0
F7.0
tp51
a(F2.0
F3.0
F8.0
tp52
a(F2.0
F4.0
F4.0
tp53
a(F2.0
F4.0
F5.0
tp54
a(F2.0
F4.0
F6.0
tp55
a(F2.0
F4.0
F7.0
tp56
a(F2.0
F4.0
F8.0
tp57
a(F2.0
F5.0
F4.0
tp58
a(F2.0
F5.0
F5.0
tp59
a(F2.0
F5.0
F6.0
tp60
a(F2.0
F5.0
F7.0
tp61
a(F2.0
F5.0
F8.0
tp62
a(F2.0
F3.0
F4.0
tp63
a(F2.0
F3.0
F5.0
tp64
a(F2.0
F3.0
F6.0
tp65
a(F2.0
F3.0
F7.0
tp66
a(F2.0
F3.0
F8.0
tp67
a(F2.0
F3.0
F4.0
tp68
a(F2.0
F3.0
F5.0
tp69
a(F2.0
F3.0
F6.0
tp70
a(F2.0
F3.0
F7.0
tp71
a(F2.0
F3.0
F8.0
tp72
a(F2.0
F3.0
F4.0
tp73
a(F2.0
F3.0
F5.0
tp74
a(F2.0
F3.0
F6.0
tp75
a(F2.0
F3.0
F7.0
tp76
a(F2.0
F3.0
F8.0
tp77
a(F2.0
F4.0
F4.0
tp78
a(F2.0
F4.0
F5.0
tp79
a(F2.0
F4.0
F6.0
tp80
a(F2.0
F4.0
F7.0
tp81
a(F2.0
F4.0
F8.0
tp82
a(F2.0
F5.0
F4.0
tp83
a(F2.0
F5.0
F5.0
tp84
a(F2.0
F5.0
F6.0
tp85
a(F2.0
F5.0
F7.0
tp86
a(F2.0
F5.0
F8.0
tp87
a(F2.0
F3.0
F4.0
tp88
a(F2.0
F3.0
F5.0
tp89
a(F2.0
F3.0
F6.0
tp90
a(F2.0
F3.0
F7.0
tp91
a(F2.0
F3.0
F8.0
tp92
a(F2.0
F3.0
F4.0
tp93
a(F2.0
F3.0
F5.0
tp94
a(F2.0
F3.0
F6.0
tp95
a(F2.0
F3.0
F7.0
tp96
a(F2.0
F3.0
F8.0
tp97
a(F2.0
F3.0
F4.0
tp98
a(F2.0
F3.0
F5.0
tp99
a(F2.0
F3.0
F6.0
tp100
a(F2.0
F3.0
F7.0
tp101
a(F2.0
F3.0
F8.0
tp102
a(F2.0
F4.0
F4.0
tp103
a(F2.0
F4.0
F5.0
tp104
a(F2.0
F4.0
F6.0
tp105
a(F2.0
F4.0
F7.0
tp106
a(F2.0
F4.0
F8.0
tp107
a(F2.0
F5.0
F4.0
tp108
a(F2.0
F5.0
F5.0
tp109
a(F2.0
F5.0
F6.0
tp110
a(F2.0
F5.0
F7.0
tp111
a(F2.0
F5.0
F8.0
tp112
a(F3.0
F3.0
F4.0
tp113
a(F3.0
F3.0
F5.0
tp114
a(F3.0
F3.0
F6.0
tp115
a(F3.0
F3.0
F7.0
tp116
a(F3.0
F3.0
F8.0
tp117
a(F3.0
F3.0
F4.0
tp118
a(F3.0
F3.0
F5.0
tp119
a(F3.0
F3.0
F6.0
tp120
a(F3.0
F3.0
F7.0
tp121
a(F3.0
F3.0
F8.0
tp122
a(F3.0
F3.0
F4.0
tp123
a(F3.0
F3.0
F5.0
tp124
a(F3.0
F3.0
F6.0
tp125
a(F3.0
F3.0
F7.0
tp126
a(F3.0
F3.0
F8.0
tp127
a(F3.0
F4.0
F4.0
tp128
a(F3.0
F4.0
F5.0
tp129
a(F3.0
F4.0
F6.0
tp130
a(F3.0
F4.0
F7.0
tp131
a(F3.0
F4.0
F8.0
tp132
a(F3.0
F5.0
F4.0
tp133
a(F3.0
F5.0
F5.0
tp134
a(F3.0
F5.0
F6.0
tp135
a(F3.0
F5.0
F7.0
tp136
a(F3.0
F5.0
F8.0
tp137
a(F3.0
F3.0
F4.0
tp138
a(F3.0
F3.0
F5.0
tp139
a(F3.0
F3.0
F6.0
tp140
a(F3.0
F3.0
F7.0
tp141
a(F3.0
F3.0
F8.0
tp142
a(F3.0
F3.0
F4.0
tp143
a(F3.0
F3.0
F5.0
tp144
a(F3.0
F3.0
F6.0
tp145
a(F3.0
F3.0
F7.0
tp146
a(F3.0
F3.0
F8.0
tp147
a(F3.0
F3.0
F4.0
tp148
a(F3.0
F3.0
F5.0
tp149
a(F3.0
F3.0
F6.0
tp150
a(F3.0
F3.0
F7.0
tp151
a(F3.0
F3.0
F8.0
tp152
a(F3.0
F4.0
F4.0
tp153
a(F3.0
F4.0
F5.0
tp154
a(F3.0
F4.0
F6.0
tp155
a(F3.0
F4.0
F7.0
tp156
a(F3.0
F4.0
F8.0
tp157
a(F3.0
F5.0
F4.0
tp158
a(F3.0
F5.0
F5.0
tp159
a(F3.0
F5.0
F6.0
tp160
a(F3.0
F5.0
F7.0
tp161
a(F3.0
F5.0
F8.0
tp162
asS'makespan_factor'
p163
F2.0
sS'compound_going_goods'
p164
(lp165
(lp166
I12
aasS'sequence_receiving_doors'
p167
g9
sS'outbound_goods'
p168
(lp169
(lp170
I12
aasS'number_of_tghtness_factors'
p171
I0
sS'beta'
p172
I0
sS'number_of_receiving_doors'
p173
I1
sS'number_of_compound_trucks'
p174
I1
sS'compound_goods'
p175
(lp176
(lp177
a(lp178
asS'inbound_arrival_time'
p179
F2.0
sS'outbound_twoGD'
p180
I0
sS'goods'
p181
(lp182
(lp183
a(lp184
ag176
asS'number_of_inbound_trucks'
p185
I1
sS'tightness_factors'
p186
(lp187
F4.0
aF5.0
aF6.0
aF7.0
aF8.0
asS'outbound_twogdj'
p188
I0
sS'number_of_outbound_trucks'
p189
I1
sS'inbound_twogdj'
p190
I0
sS'beta_values'
p191
(lp192
F3.0
aF3.0
aF3.0
aF4.0
aF5.0
asS'compound_coming_goods'
p193
(lp194
(lp195
I12
aasS'sequence_shipping_doors'
p196
g10
sS'gamma'
p197
F3.0
sb.