ccopy_reg
_reconstructor
p1
(csrc.solver
Solver
p2
c__builtin__
object
p3
NtRp4
(dp5
S'goods'
p6
(lp7
sS'number_of_trucks'
p8
I0
sS'compound_trucks'
p9
(dp10
sS'truck_dictionary'
p11
(dp12
S'inbound'
p13
(dp14
sS'outbound'
p15
(dp16
sS'compound'
p17
g10
ssS'data_name'
p18
S'unnamed'
p19
sS'number_of_goods'
p20
I0
sS'outbound_trucks'
p21
g16
sS'inbound_trucks'
p22
g14
sb.